target datalayout = "e-m:e-p270:32:32-p271:32:32-p272:64:64-i64:64-i128:128-f80:128-n8:16:32:64-S128"
target triple = "x86_64-pc-linux-gnu"

@ff_crop_tab = external hidden constant [2304 x i8], align 16

; Function Attrs: nounwind uwtable
define internal void @avg_rv30_tpel8_h_lowpass(ptr noundef %0, ptr noundef %1, i32 noundef %2, i32 noundef %3, i32 noundef %4, i32 noundef %5) #3 {
  %7 = alloca ptr, align 8
  %8 = alloca ptr, align 8
  %9 = alloca i32, align 4
  %10 = alloca i32, align 4
  %11 = alloca i32, align 4
  %12 = alloca i32, align 4
  %13 = alloca i32, align 4
  %14 = alloca ptr, align 8
  %15 = alloca i32, align 4
  store ptr %0, ptr %7, align 8, !tbaa !10
  store ptr %1, ptr %8, align 8, !tbaa !10
  store i32 %2, ptr %9, align 4, !tbaa !14
  store i32 %3, ptr %10, align 4, !tbaa !14
  store i32 %4, ptr %11, align 4, !tbaa !14
  store i32 %5, ptr %12, align 4, !tbaa !14
  call void @llvm.lifetime.start.p0(i64 4, ptr %13) #4
  store i32 8, ptr %13, align 4, !tbaa !14
  call void @llvm.lifetime.start.p0(i64 8, ptr %14) #4
  store ptr getelementptr inbounds (i8, ptr @ff_crop_tab, i64 1024), ptr %14, align 8, !tbaa !10
  call void @llvm.lifetime.start.p0(i64 4, ptr %15) #4
  store i32 0, ptr %15, align 4, !tbaa !14
  br label %16

16:                                               ; preds = %356, %6
  %17 = load i32, ptr %15, align 4, !tbaa !14
  %18 = icmp slt i32 %17, 8
  br i1 %18, label %19, label %359

19:                                               ; preds = %16
  %20 = load ptr, ptr %7, align 8, !tbaa !10
  %21 = getelementptr inbounds i8, ptr %20, i64 0
  %22 = load i8, ptr %21, align 1, !tbaa !16
  %23 = zext i8 %22 to i32
  %24 = load ptr, ptr %14, align 8, !tbaa !10
  %25 = load ptr, ptr %8, align 8, !tbaa !10
  %26 = getelementptr inbounds i8, ptr %25, i64 -1
  %27 = load i8, ptr %26, align 1, !tbaa !16
  %28 = zext i8 %27 to i32
  %29 = load ptr, ptr %8, align 8, !tbaa !10
  %30 = getelementptr inbounds i8, ptr %29, i64 2
  %31 = load i8, ptr %30, align 1, !tbaa !16
  %32 = zext i8 %31 to i32
  %33 = add nsw i32 %28, %32
  %34 = sub nsw i32 0, %33
  %35 = load ptr, ptr %8, align 8, !tbaa !10
  %36 = getelementptr inbounds i8, ptr %35, i64 0
  %37 = load i8, ptr %36, align 1, !tbaa !16
  %38 = zext i8 %37 to i32
  %39 = load i32, ptr %11, align 4, !tbaa !14
  %40 = mul nsw i32 %38, %39
  %41 = add nsw i32 %34, %40
  %42 = load ptr, ptr %8, align 8, !tbaa !10
  %43 = getelementptr inbounds i8, ptr %42, i64 1
  %44 = load i8, ptr %43, align 1, !tbaa !16
  %45 = zext i8 %44 to i32
  %46 = load i32, ptr %12, align 4, !tbaa !14
  %47 = mul nsw i32 %45, %46
  %48 = add nsw i32 %41, %47
  %49 = add nsw i32 %48, 8
  %50 = ashr i32 %49, 4
  %51 = sext i32 %50 to i64
  %52 = getelementptr inbounds i8, ptr %24, i64 %51
  %53 = load i8, ptr %52, align 1, !tbaa !16
  %54 = zext i8 %53 to i32
  %55 = add nsw i32 %23, %54
  %56 = add nsw i32 %55, 1
  %57 = ashr i32 %56, 1
  %58 = trunc i32 %57 to i8
  %59 = load ptr, ptr %7, align 8, !tbaa !10
  %60 = getelementptr inbounds i8, ptr %59, i64 0
  store i8 %58, ptr %60, align 1, !tbaa !16
  %61 = load ptr, ptr %7, align 8, !tbaa !10
  %62 = getelementptr inbounds i8, ptr %61, i64 1
  %63 = load i8, ptr %62, align 1, !tbaa !16
  %64 = zext i8 %63 to i32
  %65 = load ptr, ptr %14, align 8, !tbaa !10
  %66 = load ptr, ptr %8, align 8, !tbaa !10
  %67 = getelementptr inbounds i8, ptr %66, i64 0
  %68 = load i8, ptr %67, align 1, !tbaa !16
  %69 = zext i8 %68 to i32
  %70 = load ptr, ptr %8, align 8, !tbaa !10
  %71 = getelementptr inbounds i8, ptr %70, i64 3
  %72 = load i8, ptr %71, align 1, !tbaa !16
  %73 = zext i8 %72 to i32
  %74 = add nsw i32 %69, %73
  %75 = sub nsw i32 0, %74
  %76 = load ptr, ptr %8, align 8, !tbaa !10
  %77 = getelementptr inbounds i8, ptr %76, i64 1
  %78 = load i8, ptr %77, align 1, !tbaa !16
  %79 = zext i8 %78 to i32
  %80 = load i32, ptr %11, align 4, !tbaa !14
  %81 = mul nsw i32 %79, %80
  %82 = add nsw i32 %75, %81
  %83 = load ptr, ptr %8, align 8, !tbaa !10
  %84 = getelementptr inbounds i8, ptr %83, i64 2
  %85 = load i8, ptr %84, align 1, !tbaa !16
  %86 = zext i8 %85 to i32
  %87 = load i32, ptr %12, align 4, !tbaa !14
  %88 = mul nsw i32 %86, %87
  %89 = add nsw i32 %82, %88
  %90 = add nsw i32 %89, 8
  %91 = ashr i32 %90, 4
  %92 = sext i32 %91 to i64
  %93 = getelementptr inbounds i8, ptr %65, i64 %92
  %94 = load i8, ptr %93, align 1, !tbaa !16
  %95 = zext i8 %94 to i32
  %96 = add nsw i32 %64, %95
  %97 = add nsw i32 %96, 1
  %98 = ashr i32 %97, 1
  %99 = trunc i32 %98 to i8
  %100 = load ptr, ptr %7, align 8, !tbaa !10
  %101 = getelementptr inbounds i8, ptr %100, i64 1
  store i8 %99, ptr %101, align 1, !tbaa !16
  %102 = load ptr, ptr %7, align 8, !tbaa !10
  %103 = getelementptr inbounds i8, ptr %102, i64 2
  %104 = load i8, ptr %103, align 1, !tbaa !16
  %105 = zext i8 %104 to i32
  %106 = load ptr, ptr %14, align 8, !tbaa !10
  %107 = load ptr, ptr %8, align 8, !tbaa !10
  %108 = getelementptr inbounds i8, ptr %107, i64 1
  %109 = load i8, ptr %108, align 1, !tbaa !16
  %110 = zext i8 %109 to i32
  %111 = load ptr, ptr %8, align 8, !tbaa !10
  %112 = getelementptr inbounds i8, ptr %111, i64 4
  %113 = load i8, ptr %112, align 1, !tbaa !16
  %114 = zext i8 %113 to i32
  %115 = add nsw i32 %110, %114
  %116 = sub nsw i32 0, %115
  %117 = load ptr, ptr %8, align 8, !tbaa !10
  %118 = getelementptr inbounds i8, ptr %117, i64 2
  %119 = load i8, ptr %118, align 1, !tbaa !16
  %120 = zext i8 %119 to i32
  %121 = load i32, ptr %11, align 4, !tbaa !14
  %122 = mul nsw i32 %120, %121
  %123 = add nsw i32 %116, %122
  %124 = load ptr, ptr %8, align 8, !tbaa !10
  %125 = getelementptr inbounds i8, ptr %124, i64 3
  %126 = load i8, ptr %125, align 1, !tbaa !16
  %127 = zext i8 %126 to i32
  %128 = load i32, ptr %12, align 4, !tbaa !14
  %129 = mul nsw i32 %127, %128
  %130 = add nsw i32 %123, %129
  %131 = add nsw i32 %130, 8
  %132 = ashr i32 %131, 4
  %133 = sext i32 %132 to i64
  %134 = getelementptr inbounds i8, ptr %106, i64 %133
  %135 = load i8, ptr %134, align 1, !tbaa !16
  %136 = zext i8 %135 to i32
  %137 = add nsw i32 %105, %136
  %138 = add nsw i32 %137, 1
  %139 = ashr i32 %138, 1
  %140 = trunc i32 %139 to i8
  %141 = load ptr, ptr %7, align 8, !tbaa !10
  %142 = getelementptr inbounds i8, ptr %141, i64 2
  store i8 %140, ptr %142, align 1, !tbaa !16
  %143 = load ptr, ptr %7, align 8, !tbaa !10
  %144 = getelementptr inbounds i8, ptr %143, i64 3
  %145 = load i8, ptr %144, align 1, !tbaa !16
  %146 = zext i8 %145 to i32
  %147 = load ptr, ptr %14, align 8, !tbaa !10
  %148 = load ptr, ptr %8, align 8, !tbaa !10
  %149 = getelementptr inbounds i8, ptr %148, i64 2
  %150 = load i8, ptr %149, align 1, !tbaa !16
  %151 = zext i8 %150 to i32
  %152 = load ptr, ptr %8, align 8, !tbaa !10
  %153 = getelementptr inbounds i8, ptr %152, i64 5
  %154 = load i8, ptr %153, align 1, !tbaa !16
  %155 = zext i8 %154 to i32
  %156 = add nsw i32 %151, %155
  %157 = sub nsw i32 0, %156
  %158 = load ptr, ptr %8, align 8, !tbaa !10
  %159 = getelementptr inbounds i8, ptr %158, i64 3
  %160 = load i8, ptr %159, align 1, !tbaa !16
  %161 = zext i8 %160 to i32
  %162 = load i32, ptr %11, align 4, !tbaa !14
  %163 = mul nsw i32 %161, %162
  %164 = add nsw i32 %157, %163
  %165 = load ptr, ptr %8, align 8, !tbaa !10
  %166 = getelementptr inbounds i8, ptr %165, i64 4
  %167 = load i8, ptr %166, align 1, !tbaa !16
  %168 = zext i8 %167 to i32
  %169 = load i32, ptr %12, align 4, !tbaa !14
  %170 = mul nsw i32 %168, %169
  %171 = add nsw i32 %164, %170
  %172 = add nsw i32 %171, 8
  %173 = ashr i32 %172, 4
  %174 = sext i32 %173 to i64
  %175 = getelementptr inbounds i8, ptr %147, i64 %174
  %176 = load i8, ptr %175, align 1, !tbaa !16
  %177 = zext i8 %176 to i32
  %178 = add nsw i32 %146, %177
  %179 = add nsw i32 %178, 1
  %180 = ashr i32 %179, 1
  %181 = trunc i32 %180 to i8
  %182 = load ptr, ptr %7, align 8, !tbaa !10
  %183 = getelementptr inbounds i8, ptr %182, i64 3
  store i8 %181, ptr %183, align 1, !tbaa !16
  %184 = load ptr, ptr %7, align 8, !tbaa !10
  %185 = getelementptr inbounds i8, ptr %184, i64 4
  %186 = load i8, ptr %185, align 1, !tbaa !16
  %187 = zext i8 %186 to i32
  %188 = load ptr, ptr %14, align 8, !tbaa !10
  %189 = load ptr, ptr %8, align 8, !tbaa !10
  %190 = getelementptr inbounds i8, ptr %189, i64 3
  %191 = load i8, ptr %190, align 1, !tbaa !16
  %192 = zext i8 %191 to i32
  %193 = load ptr, ptr %8, align 8, !tbaa !10
  %194 = getelementptr inbounds i8, ptr %193, i64 6
  %195 = load i8, ptr %194, align 1, !tbaa !16
  %196 = zext i8 %195 to i32
  %197 = add nsw i32 %192, %196
  %198 = sub nsw i32 0, %197
  %199 = load ptr, ptr %8, align 8, !tbaa !10
  %200 = getelementptr inbounds i8, ptr %199, i64 4
  %201 = load i8, ptr %200, align 1, !tbaa !16
  %202 = zext i8 %201 to i32
  %203 = load i32, ptr %11, align 4, !tbaa !14
  %204 = mul nsw i32 %202, %203
  %205 = add nsw i32 %198, %204
  %206 = load ptr, ptr %8, align 8, !tbaa !10
  %207 = getelementptr inbounds i8, ptr %206, i64 5
  %208 = load i8, ptr %207, align 1, !tbaa !16
  %209 = zext i8 %208 to i32
  %210 = load i32, ptr %12, align 4, !tbaa !14
  %211 = mul nsw i32 %209, %210
  %212 = add nsw i32 %205, %211
  %213 = add nsw i32 %212, 8
  %214 = ashr i32 %213, 4
  %215 = sext i32 %214 to i64
  %216 = getelementptr inbounds i8, ptr %188, i64 %215
  %217 = load i8, ptr %216, align 1, !tbaa !16
  %218 = zext i8 %217 to i32
  %219 = add nsw i32 %187, %218
  %220 = add nsw i32 %219, 1
  %221 = ashr i32 %220, 1
  %222 = trunc i32 %221 to i8
  %223 = load ptr, ptr %7, align 8, !tbaa !10
  %224 = getelementptr inbounds i8, ptr %223, i64 4
  store i8 %222, ptr %224, align 1, !tbaa !16
  %225 = load ptr, ptr %7, align 8, !tbaa !10
  %226 = getelementptr inbounds i8, ptr %225, i64 5
  %227 = load i8, ptr %226, align 1, !tbaa !16
  %228 = zext i8 %227 to i32
  %229 = load ptr, ptr %14, align 8, !tbaa !10
  %230 = load ptr, ptr %8, align 8, !tbaa !10
  %231 = getelementptr inbounds i8, ptr %230, i64 4
  %232 = load i8, ptr %231, align 1, !tbaa !16
  %233 = zext i8 %232 to i32
  %234 = load ptr, ptr %8, align 8, !tbaa !10
  %235 = getelementptr inbounds i8, ptr %234, i64 7
  %236 = load i8, ptr %235, align 1, !tbaa !16
  %237 = zext i8 %236 to i32
  %238 = add nsw i32 %233, %237
  %239 = sub nsw i32 0, %238
  %240 = load ptr, ptr %8, align 8, !tbaa !10
  %241 = getelementptr inbounds i8, ptr %240, i64 5
  %242 = load i8, ptr %241, align 1, !tbaa !16
  %243 = zext i8 %242 to i32
  %244 = load i32, ptr %11, align 4, !tbaa !14
  %245 = mul nsw i32 %243, %244
  %246 = add nsw i32 %239, %245
  %247 = load ptr, ptr %8, align 8, !tbaa !10
  %248 = getelementptr inbounds i8, ptr %247, i64 6
  %249 = load i8, ptr %248, align 1, !tbaa !16
  %250 = zext i8 %249 to i32
  %251 = load i32, ptr %12, align 4, !tbaa !14
  %252 = mul nsw i32 %250, %251
  %253 = add nsw i32 %246, %252
  %254 = add nsw i32 %253, 8
  %255 = ashr i32 %254, 4
  %256 = sext i32 %255 to i64
  %257 = getelementptr inbounds i8, ptr %229, i64 %256
  %258 = load i8, ptr %257, align 1, !tbaa !16
  %259 = zext i8 %258 to i32
  %260 = add nsw i32 %228, %259
  %261 = add nsw i32 %260, 1
  %262 = ashr i32 %261, 1
  %263 = trunc i32 %262 to i8
  %264 = load ptr, ptr %7, align 8, !tbaa !10
  %265 = getelementptr inbounds i8, ptr %264, i64 5
  store i8 %263, ptr %265, align 1, !tbaa !16
  %266 = load ptr, ptr %7, align 8, !tbaa !10
  %267 = getelementptr inbounds i8, ptr %266, i64 6
  %268 = load i8, ptr %267, align 1, !tbaa !16
  %269 = zext i8 %268 to i32
  %270 = load ptr, ptr %14, align 8, !tbaa !10
  %271 = load ptr, ptr %8, align 8, !tbaa !10
  %272 = getelementptr inbounds i8, ptr %271, i64 5
  %273 = load i8, ptr %272, align 1, !tbaa !16
  %274 = zext i8 %273 to i32
  %275 = load ptr, ptr %8, align 8, !tbaa !10
  %276 = getelementptr inbounds i8, ptr %275, i64 8
  %277 = load i8, ptr %276, align 1, !tbaa !16
  %278 = zext i8 %277 to i32
  %279 = add nsw i32 %274, %278
  %280 = sub nsw i32 0, %279
  %281 = load ptr, ptr %8, align 8, !tbaa !10
  %282 = getelementptr inbounds i8, ptr %281, i64 6
  %283 = load i8, ptr %282, align 1, !tbaa !16
  %284 = zext i8 %283 to i32
  %285 = load i32, ptr %11, align 4, !tbaa !14
  %286 = mul nsw i32 %284, %285
  %287 = add nsw i32 %280, %286
  %288 = load ptr, ptr %8, align 8, !tbaa !10
  %289 = getelementptr inbounds i8, ptr %288, i64 7
  %290 = load i8, ptr %289, align 1, !tbaa !16
  %291 = zext i8 %290 to i32
  %292 = load i32, ptr %12, align 4, !tbaa !14
  %293 = mul nsw i32 %291, %292
  %294 = add nsw i32 %287, %293
  %295 = add nsw i32 %294, 8
  %296 = ashr i32 %295, 4
  %297 = sext i32 %296 to i64
  %298 = getelementptr inbounds i8, ptr %270, i64 %297
  %299 = load i8, ptr %298, align 1, !tbaa !16
  %300 = zext i8 %299 to i32
  %301 = add nsw i32 %269, %300
  %302 = add nsw i32 %301, 1
  %303 = ashr i32 %302, 1
  %304 = trunc i32 %303 to i8
  %305 = load ptr, ptr %7, align 8, !tbaa !10
  %306 = getelementptr inbounds i8, ptr %305, i64 6
  store i8 %304, ptr %306, align 1, !tbaa !16
  %307 = load ptr, ptr %7, align 8, !tbaa !10
  %308 = getelementptr inbounds i8, ptr %307, i64 7
  %309 = load i8, ptr %308, align 1, !tbaa !16
  %310 = zext i8 %309 to i32
  %311 = load ptr, ptr %14, align 8, !tbaa !10
  %312 = load ptr, ptr %8, align 8, !tbaa !10
  %313 = getelementptr inbounds i8, ptr %312, i64 6
  %314 = load i8, ptr %313, align 1, !tbaa !16
  %315 = zext i8 %314 to i32
  %316 = load ptr, ptr %8, align 8, !tbaa !10
  %317 = getelementptr inbounds i8, ptr %316, i64 9
  %318 = load i8, ptr %317, align 1, !tbaa !16
  %319 = zext i8 %318 to i32
  %320 = add nsw i32 %315, %319
  %321 = sub nsw i32 0, %320
  %322 = load ptr, ptr %8, align 8, !tbaa !10
  %323 = getelementptr inbounds i8, ptr %322, i64 7
  %324 = load i8, ptr %323, align 1, !tbaa !16
  %325 = zext i8 %324 to i32
  %326 = load i32, ptr %11, align 4, !tbaa !14
  %327 = mul nsw i32 %325, %326
  %328 = add nsw i32 %321, %327
  %329 = load ptr, ptr %8, align 8, !tbaa !10
  %330 = getelementptr inbounds i8, ptr %329, i64 8
  %331 = load i8, ptr %330, align 1, !tbaa !16
  %332 = zext i8 %331 to i32
  %333 = load i32, ptr %12, align 4, !tbaa !14
  %334 = mul nsw i32 %332, %333
  %335 = add nsw i32 %328, %334
  %336 = add nsw i32 %335, 8
  %337 = ashr i32 %336, 4
  %338 = sext i32 %337 to i64
  %339 = getelementptr inbounds i8, ptr %311, i64 %338
  %340 = load i8, ptr %339, align 1, !tbaa !16
  %341 = zext i8 %340 to i32
  %342 = add nsw i32 %310, %341
  %343 = add nsw i32 %342, 1
  %344 = ashr i32 %343, 1
  %345 = trunc i32 %344 to i8
  %346 = load ptr, ptr %7, align 8, !tbaa !10
  %347 = getelementptr inbounds i8, ptr %346, i64 7
  store i8 %345, ptr %347, align 1, !tbaa !16
  %348 = load i32, ptr %9, align 4, !tbaa !14
  %349 = load ptr, ptr %7, align 8, !tbaa !10
  %350 = sext i32 %348 to i64
  %351 = getelementptr inbounds i8, ptr %349, i64 %350
  store ptr %351, ptr %7, align 8, !tbaa !10
  %352 = load i32, ptr %10, align 4, !tbaa !14
  %353 = load ptr, ptr %8, align 8, !tbaa !10
  %354 = sext i32 %352 to i64
  %355 = getelementptr inbounds i8, ptr %353, i64 %354
  store ptr %355, ptr %8, align 8, !tbaa !10
  br label %356

356:                                              ; preds = %19
  %357 = load i32, ptr %15, align 4, !tbaa !14
  %358 = add nsw i32 %357, 1
  store i32 %358, ptr %15, align 4, !tbaa !14
  br label %16, !llvm.loop !28

359:                                              ; preds = %16
  call void @llvm.lifetime.end.p0(i64 4, ptr %15) #4
  call void @llvm.lifetime.end.p0(i64 8, ptr %14) #4
  call void @llvm.lifetime.end.p0(i64 4, ptr %13) #4
  ret void
}