; Function Attrs: nofree norecurse nosync nounwind memory(argmem: readwrite) uwtable
define internal fastcc void @avg_rv30_tpel8_h_lowpass(ptr noundef captures(none) %0, ptr noundef readonly captures(none) %1, i32 noundef %2, i32 noundef %3, i32 noundef range(i32 6, 13) %4, i32 noundef range(i32 6, 13) %5) unnamed_addr #3 {
  %7 = sext i32 %2 to i64
  %8 = sext i32 %3 to i64
  br label %9

9:                                                ; preds = %6, %9
  %.0104 = phi i32 [ 0, %6 ], [ %221, %9 ]
  %.077103 = phi ptr [ %0, %6 ], [ %219, %9 ]
  %.078102 = phi ptr [ %1, %6 ], [ %220, %9 ]
  %10 = load i8, ptr %.077103, align 1, !tbaa !8
  %11 = zext i8 %10 to i16
  %12 = getelementptr inbounds i8, ptr %.078102, i64 -1
  %13 = load i8, ptr %12, align 1, !tbaa !8
  %14 = zext i8 %13 to i32
  %15 = getelementptr inbounds nuw i8, ptr %.078102, i64 2
  %16 = load i8, ptr %15, align 1, !tbaa !8
  %17 = zext i8 %16 to i32
  %18 = load i8, ptr %.078102, align 1, !tbaa !8
  %19 = zext i8 %18 to i32
  %20 = mul nuw nsw i32 %4, %19
  %21 = getelementptr inbounds nuw i8, ptr %.078102, i64 1
  %22 = load i8, ptr %21, align 1, !tbaa !8
  %23 = zext i8 %22 to i32
  %24 = mul nuw nsw i32 %5, %23
  %25 = add nuw nsw i32 %14, %17
  %reass.sub = sub nsw i32 %20, %25
  %26 = add nsw i32 %reass.sub, 8
  %27 = add nsw i32 %26, %24
  %28 = ashr i32 %27, 4
  %29 = sext i32 %28 to i64
  %30 = getelementptr inbounds i8, ptr getelementptr inbounds nuw (i8, ptr @ff_crop_tab, i64 1024), i64 %29
  %31 = load i8, ptr %30, align 1, !tbaa !8
  %32 = zext i8 %31 to i16
  %33 = add nuw nsw i16 %11, 1
  %34 = add nuw nsw i16 %33, %32
  %35 = lshr i16 %34, 1
  %36 = trunc nuw i16 %35 to i8
  store i8 %36, ptr %.077103, align 1, !tbaa !8
  %37 = getelementptr inbounds nuw i8, ptr %.077103, i64 1
  %38 = load i8, ptr %37, align 1, !tbaa !8
  %39 = zext i8 %38 to i16
  %40 = load i8, ptr %.078102, align 1, !tbaa !8
  %41 = zext i8 %40 to i32
  %42 = getelementptr inbounds nuw i8, ptr %.078102, i64 3
  %43 = load i8, ptr %42, align 1, !tbaa !8
  %44 = zext i8 %43 to i32
  %45 = load i8, ptr %21, align 1, !tbaa !8
  %46 = zext i8 %45 to i32
  %47 = mul nuw nsw i32 %4, %46
  %48 = load i8, ptr %15, align 1, !tbaa !8
  %49 = zext i8 %48 to i32
  %50 = mul nuw nsw i32 %5, %49
  %51 = add nuw nsw i32 %41, %44
  %reass.sub105 = sub nsw i32 %47, %51
  %52 = add nsw i32 %reass.sub105, 8
  %53 = add nsw i32 %52, %50
  %54 = ashr i32 %53, 4
  %55 = sext i32 %54 to i64
  %56 = getelementptr inbounds i8, ptr getelementptr inbounds nuw (i8, ptr @ff_crop_tab, i64 1024), i64 %55
  %57 = load i8, ptr %56, align 1, !tbaa !8
  %58 = zext i8 %57 to i16
  %59 = add nuw nsw i16 %39, 1
  %60 = add nuw nsw i16 %59, %58
  %61 = lshr i16 %60, 1
  %62 = trunc nuw i16 %61 to i8
  store i8 %62, ptr %37, align 1, !tbaa !8
  %63 = getelementptr inbounds nuw i8, ptr %.077103, i64 2
  %64 = load i8, ptr %63, align 1, !tbaa !8
  %65 = zext i8 %64 to i16
  %66 = load i8, ptr %21, align 1, !tbaa !8
  %67 = zext i8 %66 to i32
  %68 = getelementptr inbounds nuw i8, ptr %.078102, i64 4
  %69 = load i8, ptr %68, align 1, !tbaa !8
  %70 = zext i8 %69 to i32
  %71 = load i8, ptr %15, align 1, !tbaa !8
  %72 = zext i8 %71 to i32
  %73 = mul nuw nsw i32 %4, %72
  %74 = load i8, ptr %42, align 1, !tbaa !8
  %75 = zext i8 %74 to i32
  %76 = mul nuw nsw i32 %5, %75
  %77 = add nuw nsw i32 %67, %70
  %reass.sub106 = sub nsw i32 %73, %77
  %78 = add nsw i32 %reass.sub106, 8
  %79 = add nsw i32 %78, %76
  %80 = ashr i32 %79, 4
  %81 = sext i32 %80 to i64
  %82 = getelementptr inbounds i8, ptr getelementptr inbounds nuw (i8, ptr @ff_crop_tab, i64 1024), i64 %81
  %83 = load i8, ptr %82, align 1, !tbaa !8
  %84 = zext i8 %83 to i16
  %85 = add nuw nsw i16 %65, 1
  %86 = add nuw nsw i16 %85, %84
  %87 = lshr i16 %86, 1
  %88 = trunc nuw i16 %87 to i8
  store i8 %88, ptr %63, align 1, !tbaa !8
  %89 = getelementptr inbounds nuw i8, ptr %.077103, i64 3
  %90 = load i8, ptr %89, align 1, !tbaa !8
  %91 = zext i8 %90 to i16
  %92 = load i8, ptr %15, align 1, !tbaa !8
  %93 = zext i8 %92 to i32
  %94 = getelementptr inbounds nuw i8, ptr %.078102, i64 5
  %95 = load i8, ptr %94, align 1, !tbaa !8
  %96 = zext i8 %95 to i32
  %97 = load i8, ptr %42, align 1, !tbaa !8
  %98 = zext i8 %97 to i32
  %99 = mul nuw nsw i32 %4, %98
  %100 = load i8, ptr %68, align 1, !tbaa !8
  %101 = zext i8 %100 to i32
  %102 = mul nuw nsw i32 %5, %101
  %103 = add nuw nsw i32 %93, %96
  %reass.sub107 = sub nsw i32 %99, %103
  %104 = add nsw i32 %reass.sub107, 8
  %105 = add nsw i32 %104, %102
  %106 = ashr i32 %105, 4
  %107 = sext i32 %106 to i64
  %108 = getelementptr inbounds i8, ptr getelementptr inbounds nuw (i8, ptr @ff_crop_tab, i64 1024), i64 %107
  %109 = load i8, ptr %108, align 1, !tbaa !8
  %110 = zext i8 %109 to i16
  %111 = add nuw nsw i16 %91, 1
  %112 = add nuw nsw i16 %111, %110
  %113 = lshr i16 %112, 1
  %114 = trunc nuw i16 %113 to i8
  store i8 %114, ptr %89, align 1, !tbaa !8
  %115 = getelementptr inbounds nuw i8, ptr %.077103, i64 4
  %116 = load i8, ptr %115, align 1, !tbaa !8
  %117 = zext i8 %116 to i16
  %118 = load i8, ptr %42, align 1, !tbaa !8
  %119 = zext i8 %118 to i32
  %120 = getelementptr inbounds nuw i8, ptr %.078102, i64 6
  %121 = load i8, ptr %120, align 1, !tbaa !8
  %122 = zext i8 %121 to i32
  %123 = load i8, ptr %68, align 1, !tbaa !8
  %124 = zext i8 %123 to i32
  %125 = mul nuw nsw i32 %4, %124
  %126 = load i8, ptr %94, align 1, !tbaa !8
  %127 = zext i8 %126 to i32
  %128 = mul nuw nsw i32 %5, %127
  %129 = add nuw nsw i32 %119, %122
  %reass.sub108 = sub nsw i32 %125, %129
  %130 = add nsw i32 %reass.sub108, 8
  %131 = add nsw i32 %130, %128
  %132 = ashr i32 %131, 4
  %133 = sext i32 %132 to i64
  %134 = getelementptr inbounds i8, ptr getelementptr inbounds nuw (i8, ptr @ff_crop_tab, i64 1024), i64 %133
  %135 = load i8, ptr %134, align 1, !tbaa !8
  %136 = zext i8 %135 to i16
  %137 = add nuw nsw i16 %117, 1
  %138 = add nuw nsw i16 %137, %136
  %139 = lshr i16 %138, 1
  %140 = trunc nuw i16 %139 to i8
  store i8 %140, ptr %115, align 1, !tbaa !8
  %141 = getelementptr inbounds nuw i8, ptr %.077103, i64 5
  %142 = load i8, ptr %141, align 1, !tbaa !8
  %143 = zext i8 %142 to i16
  %144 = load i8, ptr %68, align 1, !tbaa !8
  %145 = zext i8 %144 to i32
  %146 = getelementptr inbounds nuw i8, ptr %.078102, i64 7
  %147 = load i8, ptr %146, align 1, !tbaa !8
  %148 = zext i8 %147 to i32
  %149 = load i8, ptr %94, align 1, !tbaa !8
  %150 = zext i8 %149 to i32
  %151 = mul nuw nsw i32 %4, %150
  %152 = load i8, ptr %120, align 1, !tbaa !8
  %153 = zext i8 %152 to i32
  %154 = mul nuw nsw i32 %5, %153
  %155 = add nuw nsw i32 %145, %148
  %reass.sub109 = sub nsw i32 %151, %155
  %156 = add nsw i32 %reass.sub109, 8
  %157 = add nsw i32 %156, %154
  %158 = ashr i32 %157, 4
  %159 = sext i32 %158 to i64
  %160 = getelementptr inbounds i8, ptr getelementptr inbounds nuw (i8, ptr @ff_crop_tab, i64 1024), i64 %159
  %161 = load i8, ptr %160, align 1, !tbaa !8
  %162 = zext i8 %161 to i16
  %163 = add nuw nsw i16 %143, 1
  %164 = add nuw nsw i16 %163, %162
  %165 = lshr i16 %164, 1
  %166 = trunc nuw i16 %165 to i8
  store i8 %166, ptr %141, align 1, !tbaa !8
  %167 = getelementptr inbounds nuw i8, ptr %.077103, i64 6
  %168 = load i8, ptr %167, align 1, !tbaa !8
  %169 = zext i8 %168 to i16
  %170 = load i8, ptr %94, align 1, !tbaa !8
  %171 = zext i8 %170 to i32
  %172 = getelementptr inbounds nuw i8, ptr %.078102, i64 8
  %173 = load i8, ptr %172, align 1, !tbaa !8
  %174 = zext i8 %173 to i32
  %175 = load i8, ptr %120, align 1, !tbaa !8
  %176 = zext i8 %175 to i32
  %177 = mul nuw nsw i32 %4, %176
  %178 = load i8, ptr %146, align 1, !tbaa !8
  %179 = zext i8 %178 to i32
  %180 = mul nuw nsw i32 %5, %179
  %181 = add nuw nsw i32 %171, %174
  %reass.sub110 = sub nsw i32 %177, %181
  %182 = add nsw i32 %reass.sub110, 8
  %183 = add nsw i32 %182, %180
  %184 = ashr i32 %183, 4
  %185 = sext i32 %184 to i64
  %186 = getelementptr inbounds i8, ptr getelementptr inbounds nuw (i8, ptr @ff_crop_tab, i64 1024), i64 %185
  %187 = load i8, ptr %186, align 1, !tbaa !8
  %188 = zext i8 %187 to i16
  %189 = add nuw nsw i16 %169, 1
  %190 = add nuw nsw i16 %189, %188
  %191 = lshr i16 %190, 1
  %192 = trunc nuw i16 %191 to i8
  store i8 %192, ptr %167, align 1, !tbaa !8
  %193 = getelementptr inbounds nuw i8, ptr %.077103, i64 7
  %194 = load i8, ptr %193, align 1, !tbaa !8
  %195 = zext i8 %194 to i16
  %196 = load i8, ptr %120, align 1, !tbaa !8
  %197 = zext i8 %196 to i32
  %198 = getelementptr inbounds nuw i8, ptr %.078102, i64 9
  %199 = load i8, ptr %198, align 1, !tbaa !8
  %200 = zext i8 %199 to i32
  %201 = load i8, ptr %146, align 1, !tbaa !8
  %202 = zext i8 %201 to i32
  %203 = mul nuw nsw i32 %4, %202
  %204 = load i8, ptr %172, align 1, !tbaa !8
  %205 = zext i8 %204 to i32
  %206 = mul nuw nsw i32 %5, %205
  %207 = add nuw nsw i32 %197, %200
  %reass.sub111 = sub nsw i32 %203, %207
  %208 = add nsw i32 %reass.sub111, 8
  %209 = add nsw i32 %208, %206
  %210 = ashr i32 %209, 4
  %211 = sext i32 %210 to i64
  %212 = getelementptr inbounds i8, ptr getelementptr inbounds nuw (i8, ptr @ff_crop_tab, i64 1024), i64 %211
  %213 = load i8, ptr %212, align 1, !tbaa !8
  %214 = zext i8 %213 to i16
  %215 = add nuw nsw i16 %195, 1
  %216 = add nuw nsw i16 %215, %214
  %217 = lshr i16 %216, 1
  %218 = trunc nuw i16 %217 to i8
  store i8 %218, ptr %193, align 1, !tbaa !8
  %219 = getelementptr inbounds i8, ptr %.077103, i64 %7
  %220 = getelementptr inbounds i8, ptr %.078102, i64 %8
  %221 = add nuw nsw i32 %.0104, 1
  %exitcond.not = icmp eq i32 %221, 8
  br i1 %exitcond.not, label %222, label %9, !llvm.loop !28

222:                                              ; preds = %9
  ret void
}